(dp0
S'jojoj'
p1
(dp2
S'digit9successes'
p3
I1
sS'logins'
p4
I1
sS'digit3successes'
p5
I1
sS'digit9attempts'
p6
I2
sS'digit0attempts'
p7
I2
sS'digit3attempts'
p8
I3
sS'digit1attempts'
p9
I2
sS'Current Level'
p10
I7
sS'digit8attempts'
p11
I3
sS'digit1successes'
p12
I1
ssS'only gonna tr thi on'
p13
(dp14
S'digit6successes'
p15
I3
sS'digit1attempts'
p16
I3
sS'digit5successes'
p17
I1
sS'digit9attempts'
p18
I2
sS'digit3attempts'
p19
I2
sS'Current Level'
p20
I8
sS'digit4successes'
p21
I1
sS'digit7successes'
p22
I1
sS'digit6attempts'
p23
I4
sS'digit8successes'
p24
I2
sS'digit5attempts'
p25
I2
sS'digit8attempts'
p26
I3
sS'digit1successes'
p27
I2
sS'digit2successes'
p28
I3
sS'logins'
p29
I1
sS'digit2attempts'
p30
I4
sS'digit4attempts'
p31
I2
sS'digit9successes'
p32
I1
sS'digit0successes'
p33
I2
sS'digit3successes'
p34
I1
sS'digit7attempts'
p35
I2
sS'digit0attempts'
p36
I4
ssS'Dr.'
p37
(dp38
S'logins'
p39
I1
sS'Current Level'
p40
I0
ssS'dhhd'
p41
(dp42
S'logins'
p43
I1
sS'Current Level'
p44
I8
sS'digit0successes'
p45
I2
sS'digit0attempts'
p46
I3
ssS'oho'
p47
(dp48
S'logins'
p49
I1
sS'Current Level'
p50
I7
sS'digit0successes'
p51
I1
sS'digit0attempts'
p52
I2
ssS'jjjjj'
p53
(dp54
S'logins'
p55
I1
sS'Current Level'
p56
I8
sS'digit0attempts'
p57
I3
sS'digit9attempts'
p58
I2
sS'digit0successes'
p59
I2
ssS'hhj'
p60
(dp61
S'logins'
p62
I1
sS'Current Level'
p63
I1
sS'digit0successes'
p64
I1
sS'digit0attempts'
p65
I2
ssS'jojo'
p66
(dp67
S'logins'
p68
I1
sS'Current Level'
p69
I0
ssS'8hoh'
p70
(dp71
S'logins'
p72
I1
sS'Current Level'
p73
I0
sS'digit0attempts'
p74
I2
ssS'jdkds'
p75
(dp76
S'logins'
p77
I1
sS'Current Level'
p78
I8
sS'digit0attempts'
p79
I2
sS'digit0successes'
p80
I1
ssS'boogie'
p81
(dp82
S'logins'
p83
I1
sS'Current Level'
p84
I8
sS'digit0attempts'
p85
I2
sS'digit0successes'
p86
I1
ssS'jjojoj'
p87
(dp88
S'digit6successes'
p89
I1
sS'logins'
p90
I1
sS'digit0successes'
p91
I1
sS'digit6attempts'
p92
I2
sS'digit0attempts'
p93
I2
sS'digit1attempts'
p94
I2
sS'Current Level'
p95
I8
sS'digit8attempts'
p96
I2
sS'digit1successes'
p97
I1
ssS'Jordan'
p98
(dp99
S'digit6successes'
p100
I1
sS'digit1attempts'
p101
I13
sS'digit5successes'
p102
I1
sS'digit9attempts'
p103
I8
sS'digit3attempts'
p104
I8
sS'Current Level'
p105
I7
sS'digit4successes'
p106
I3
sS'digit7successes'
p107
I1
sS'digit6attempts'
p108
I11
sS'digit8successes'
p109
I2
sS'digit5attempts'
p110
I8
sS'digit8attempts'
p111
I8
sS'digit1successes'
p112
I2
sS'digit2successes'
p113
I2
sS'logins'
p114
I12
sS'digit2attempts'
p115
I9
sS'digit4attempts'
p116
I9
sS'digit9successes'
p117
I1
sS'digit0successes'
p118
I9
sS'digit3successes'
p119
I1
sS'digit7attempts'
p120
I9
sS'digit0attempts'
p121
I23
ssS'djdjd'
p122
(dp123
S'logins'
p124
I1
sS'digit0successes'
p125
I2
sS'digit7attempts'
p126
I2
sS'digit0attempts'
p127
I3
sS'digit1attempts'
p128
I2
sS'digit5attempts'
p129
I2
sS'Current Level'
p130
I8
ssS'hiho'
p131
(dp132
S'logins'
p133
I1
sS'Current Level'
p134
I8
sS'digit0successes'
p135
I1
sS'digit0attempts'
p136
I2
ssS'Dr'
p137
(dp138
S'digit6successes'
p139
I5
sS'digit1attempts'
p140
I10
sS'digit5successes'
p141
I6
sS'digit9attempts'
p142
I6
sS'digit3attempts'
p143
I8
sS'Current Level'
p144
I7
sS'digit4successes'
p145
I7
sS'digit7successes'
p146
I5
sS'digit6attempts'
p147
I7
sS'digit8successes'
p148
I5
sS'digit5attempts'
p149
I7
sS'digit8attempts'
p150
I6
sS'digit1successes'
p151
I9
sS'digit2successes'
p152
I7
sS'logins'
p153
I3
sS'digit2attempts'
p154
I9
sS'digit4attempts'
p155
I8
sS'digit9successes'
p156
I5
sS'digit0successes'
p157
I11
sS'digit3successes'
p158
I7
sS'digit7attempts'
p159
I6
sS'digit0attempts'
p160
I12
ssS'testicle'
p161
(dp162
S'digit2successes'
p163
I1
sS'digit6successes'
p164
I1
sS'logins'
p165
I2
sS'digit0successes'
p166
I3
sS'digit6attempts'
p167
I2
sS'digit9attempts'
p168
I2
sS'digit0attempts'
p169
I4
sS'digit2attempts'
p170
I3
sS'Current Level'
p171
I8
ssS'pooop'
p172
(dp173
S'logins'
p174
I1
sS'Current Level'
p175
I8
sS'digit0attempts'
p176
I2
sS'digit0successes'
p177
I1
ssS'shithead'
p178
(dp179
S'logins'
p180
I1
sS'Current Level'
p181
I8
sS'digit0attempts'
p182
I2
sS'digit0successes'
p183
I1
ssS'df'
p184
(dp185
S'logins'
p186
I1
sS'Current Level'
p187
I0
sS'digit0attempts'
p188
I2
ssS'dd'
p189
(dp190
S'logins'
p191
I1
sS'Current Level'
p192
I8
sS'digit0successes'
p193
I1
sS'digit8attempts'
p194
I2
sS'digit0attempts'
p195
I2
ssS'jdjd'
p196
(dp197
S'logins'
p198
I1
sS'Current Level'
p199
I8
sS'digit0successes'
p200
I1
sS'digit0attempts'
p201
I2
ssS'jdjdjd'
p202
(dp203
S'logins'
p204
I1
sS'Current Level'
p205
I0
ssS'hj'
p206
(dp207
S'digit7successes'
p208
I1
sS'digit2successes'
p209
I2
sS'digit6successes'
p210
I2
sS'digit1attempts'
p211
I4
sS'digit0successes'
p212
I2
sS'digit4successes'
p213
I4
sS'digit3successes'
p214
I1
sS'digit5successes'
p215
I1
sS'digit6attempts'
p216
I3
sS'digit8successes'
p217
I1
sS'digit3attempts'
p218
I2
sS'digit2attempts'
p219
I3
sS'digit5attempts'
p220
I2
sS'digit7attempts'
p221
I2
sS'digit0attempts'
p222
I3
sS'Current Level'
p223
I7
sS'digit8attempts'
p224
I2
sS'digit1successes'
p225
I3
sS'logins'
p226
I1
sS'digit4attempts'
p227
I5
ssS'hi'
p228
(dp229
S'logins'
p230
I1
sS'digit0successes'
p231
I1
sS'digit6attempts'
p232
I2
sS'digit0attempts'
p233
I2
sS'digit3attempts'
p234
I2
sS'Current Level'
p235
I8
ssS'jj'
p236
(dp237
S'logins'
p238
I1
sS'Current Level'
p239
I8
sS'digit0attempts'
p240
I2
sS'digit0successes'
p241
I1
ssS'ghjk'
p242
(dp243
S'logins'
p244
I1
sS'Current Level'
p245
I8
sS'digit0attempts'
p246
I2
sS'digit0successes'
p247
I1
ssS'bubblebutt'
p248
(dp249
S'logins'
p250
I1
sS'Current Level'
p251
I1
sS'digit0successes'
p252
I1
sS'digit0attempts'
p253
I2
ssS'mmm'
p254
(dp255
S'logins'
p256
I1
sS'Current Level'
p257
I8
sS'digit0successes'
p258
I1
sS'digit0attempts'
p259
I2
ssS'nkmnk'
p260
(dp261
S'logins'
p262
I1
sS'Current Level'
p263
I0
sS'digit7attempts'
p264
I2
sS'digit0attempts'
p265
I3
ssS'ss'
p266
(dp267
S'logins'
p268
I1
sS'Current Level'
p269
I8
sS'digit0attempts'
p270
I2
sS'digit0successes'
p271
I1
ssS'j'
p272
(dp273
S'logins'
p274
I1
sS'Current Level'
p275
I0
ssS'r'
p276
(dp277
S'logins'
p278
I1
sS'Current Level'
p279
I0
ssS'u'
p280
(dp281
S'logins'
p282
I1
sS'Current Level'
p283
I0
ss.